; ModuleID = '15/114.c'
source_filename = "15/114.c"
target datalayout = "e-m:e-p270:32:32-p271:32:32-p272:64:64-i64:64-f80:128-n8:16:32:64-S128"
target triple = "x86_64-pc-linux-gnu"

@.str = private unnamed_addr constant [3 x i8] c"%d\00", align 1
@.str.1 = private unnamed_addr constant [4 x i8] c"%d\0A\00", align 1

; Function Attrs: noinline nounwind uwtable
define dso_local i32 @main() #0 {
  %1 = alloca i32, align 4
  %2 = alloca i32, align 4
  %3 = alloca [100 x [100 x i32]], align 16
  %4 = alloca i32, align 4
  %5 = alloca i32, align 4
  %6 = alloca i32, align 4
  %7 = alloca i32, align 4
  %8 = alloca i32, align 4
  %9 = alloca i32, align 4
  %10 = alloca i32, align 4
  store i32 0, i32* %1, align 4
  %11 = call i32 (i8*, ...) @__isoc99_scanf(i8* getelementptr inbounds ([3 x i8], [3 x i8]* @.str, i64 0, i64 0), i32* %2)
  store i32 1, i32* %4, align 4
  br label %12

12:                                               ; preds = %33, %0
  %13 = load i32, i32* %4, align 4
  %14 = load i32, i32* %2, align 4
  %15 = icmp sle i32 %13, %14
  br i1 %15, label %16, label %36

16:                                               ; preds = %12
  store i32 1, i32* %5, align 4
  br label %17

17:                                               ; preds = %29, %16
  %18 = load i32, i32* %5, align 4
  %19 = load i32, i32* %2, align 4
  %20 = icmp sle i32 %18, %19
  br i1 %20, label %21, label %32

21:                                               ; preds = %17
  %22 = load i32, i32* %4, align 4
  %23 = sext i32 %22 to i64
  %24 = getelementptr inbounds [100 x [100 x i32]], [100 x [100 x i32]]* %3, i64 0, i64 %23
  %25 = load i32, i32* %5, align 4
  %26 = sext i32 %25 to i64
  %27 = getelementptr inbounds [100 x i32], [100 x i32]* %24, i64 0, i64 %26
  %28 = call i32 (i8*, ...) @__isoc99_scanf(i8* getelementptr inbounds ([3 x i8], [3 x i8]* @.str, i64 0, i64 0), i32* %27)
  br label %29

29:                                               ; preds = %21
  %30 = load i32, i32* %5, align 4
  %31 = add nsw i32 %30, 1
  store i32 %31, i32* %5, align 4
  br label %17

32:                                               ; preds = %17
  br label %33

33:                                               ; preds = %32
  %34 = load i32, i32* %4, align 4
  %35 = add nsw i32 %34, 1
  store i32 %35, i32* %4, align 4
  br label %12

36:                                               ; preds = %12
  store i32 1, i32* %4, align 4
  br label %37

37:                                               ; preds = %63, %36
  %38 = load i32, i32* %4, align 4
  %39 = load i32, i32* %2, align 4
  %40 = icmp sle i32 %38, %39
  br i1 %40, label %41, label %66

41:                                               ; preds = %37
  store i32 1, i32* %5, align 4
  br label %42

42:                                               ; preds = %59, %41
  %43 = load i32, i32* %5, align 4
  %44 = load i32, i32* %2, align 4
  %45 = icmp sle i32 %43, %44
  br i1 %45, label %46, label %62

46:                                               ; preds = %42
  %47 = load i32, i32* %4, align 4
  %48 = sext i32 %47 to i64
  %49 = getelementptr inbounds [100 x [100 x i32]], [100 x [100 x i32]]* %3, i64 0, i64 %48
  %50 = load i32, i32* %5, align 4
  %51 = sext i32 %50 to i64
  %52 = getelementptr inbounds [100 x i32], [100 x i32]* %49, i64 0, i64 %51
  %53 = load i32, i32* %52, align 4
  %54 = icmp eq i32 %53, 0
  br i1 %54, label %55, label %58

55:                                               ; preds = %46
  %56 = load i32, i32* %4, align 4
  store i32 %56, i32* %6, align 4
  %57 = load i32, i32* %5, align 4
  store i32 %57, i32* %8, align 4
  br label %62

58:                                               ; preds = %46
  br label %59

59:                                               ; preds = %58
  %60 = load i32, i32* %5, align 4
  %61 = add nsw i32 %60, 1
  store i32 %61, i32* %5, align 4
  br label %42

62:                                               ; preds = %55, %42
  br label %63

63:                                               ; preds = %62
  %64 = load i32, i32* %4, align 4
  %65 = add nsw i32 %64, 1
  store i32 %65, i32* %4, align 4
  br label %37

66:                                               ; preds = %37
  %67 = load i32, i32* %2, align 4
  store i32 %67, i32* %4, align 4
  br label %68

68:                                               ; preds = %93, %66
  %69 = load i32, i32* %4, align 4
  %70 = icmp sge i32 %69, 1
  br i1 %70, label %71, label %96

71:                                               ; preds = %68
  %72 = load i32, i32* %2, align 4
  store i32 %72, i32* %5, align 4
  br label %73

73:                                               ; preds = %89, %71
  %74 = load i32, i32* %5, align 4
  %75 = icmp sge i32 %74, 1
  br i1 %75, label %76, label %92

76:                                               ; preds = %73
  %77 = load i32, i32* %4, align 4
  %78 = sext i32 %77 to i64
  %79 = getelementptr inbounds [100 x [100 x i32]], [100 x [100 x i32]]* %3, i64 0, i64 %78
  %80 = load i32, i32* %5, align 4
  %81 = sext i32 %80 to i64
  %82 = getelementptr inbounds [100 x i32], [100 x i32]* %79, i64 0, i64 %81
  %83 = load i32, i32* %82, align 4
  %84 = icmp eq i32 %83, 0
  br i1 %84, label %85, label %88

85:                                               ; preds = %76
  %86 = load i32, i32* %4, align 4
  store i32 %86, i32* %7, align 4
  %87 = load i32, i32* %5, align 4
  store i32 %87, i32* %9, align 4
  br label %92

88:                                               ; preds = %76
  br label %89

89:                                               ; preds = %88
  %90 = load i32, i32* %5, align 4
  %91 = add nsw i32 %90, -1
  store i32 %91, i32* %5, align 4
  br label %73

92:                                               ; preds = %85, %73
  br label %93

93:                                               ; preds = %92
  %94 = load i32, i32* %4, align 4
  %95 = add nsw i32 %94, -1
  store i32 %95, i32* %4, align 4
  br label %68

96:                                               ; preds = %68
  %97 = load i32, i32* %9, align 4
  %98 = load i32, i32* %8, align 4
  %99 = sub nsw i32 %97, %98
  %100 = sub nsw i32 %99, 1
  %101 = load i32, i32* %6, align 4
  %102 = load i32, i32* %7, align 4
  %103 = sub nsw i32 %101, %102
  %104 = sub nsw i32 %103, 1
  %105 = mul nsw i32 %100, %104
  store i32 %105, i32* %10, align 4
  %106 = load i32, i32* %10, align 4
  %107 = call i32 (i8*, ...) @printf(i8* getelementptr inbounds ([4 x i8], [4 x i8]* @.str.1, i64 0, i64 0), i32 %106)
  ret i32 0
}

declare dso_local i32 @__isoc99_scanf(i8*, ...) #1

declare dso_local i32 @printf(i8*, ...) #1


!llvm.module.flags = !{!0}
!llvm.ident = !{!1}

!0 = !{i32 1, !"wchar_size", i32 4}
!1 = !{!"clang version 10.0.0-4ubuntu1 "}
